target datalayout = "e-m:e-p270:32:32-p271:32:32-p272:64:64-i64:64-i128:128-f80:128-n8:16:32:64-S128"
target triple = "x86_64-pc-linux-gnu"

; Function Attrs: nounwind uwtable
define internal void @iblend_vline(ptr noundef %0, i32 noundef %1, i32 noundef %2, float noundef %3, float noundef %4, i32 noundef %5, i32 noundef %6) #1 {
  %8 = alloca ptr, align 8
  %9 = alloca i32, align 4
  %10 = alloca i32, align 4
  %11 = alloca float, align 4
  %12 = alloca float, align 4
  %13 = alloca i32, align 4
  %14 = alloca i32, align 4
  %15 = alloca i32, align 4
  store ptr %0, ptr %8, align 8, !tbaa !77
  store i32 %1, ptr %9, align 4, !tbaa !47
  store i32 %2, ptr %10, align 4, !tbaa !47
  store float %3, ptr %11, align 4, !tbaa !69
  store float %4, ptr %12, align 4, !tbaa !69
  store i32 %5, ptr %13, align 4, !tbaa !47
  store i32 %6, ptr %14, align 4, !tbaa !47
  call void @llvm.lifetime.start.p0(i64 4, ptr %15) #10
  store i32 0, ptr %15, align 4, !tbaa !47
  br label %16

16:                                               ; preds = %46, %7
  %17 = load i32, ptr %15, align 4, !tbaa !47
  %18 = load i32, ptr %9, align 4, !tbaa !47
  %19 = icmp slt i32 %17, %18
  br i1 %19, label %20, label %50

20:                                               ; preds = %16
  %21 = load i32, ptr %13, align 4, !tbaa !47
  %22 = load ptr, ptr %8, align 8, !tbaa !77
  %23 = getelementptr inbounds i8, ptr %22, i64 0
  %24 = load i8, ptr %23, align 1, !tbaa !68
  %25 = zext i8 %24 to i32
  %26 = sub nsw i32 %21, %25
  %27 = sitofp i32 %26 to float
  %28 = load float, ptr %11, align 4, !tbaa !69
  %29 = load ptr, ptr %8, align 8, !tbaa !77
  %30 = getelementptr inbounds i8, ptr %29, i64 0
  %31 = load i8, ptr %30, align 1, !tbaa !68
  %32 = zext i8 %31 to i32
  %33 = sitofp i32 %32 to float
  %34 = load float, ptr %12, align 4, !tbaa !69
  %35 = fmul nsz float %33, %34
  %36 = call nsz float @llvm.fmuladd.f32(float %27, float %28, float %35)
  %37 = fptoui float %36 to i8
  %38 = load ptr, ptr %8, align 8, !tbaa !77
  %39 = getelementptr inbounds i8, ptr %38, i64 0
  store i8 %37, ptr %39, align 1, !tbaa !68
  %40 = load i32, ptr %10, align 4, !tbaa !47
  %41 = load i32, ptr %14, align 4, !tbaa !47
  %42 = mul nsw i32 %40, %41
  %43 = load ptr, ptr %8, align 8, !tbaa !77
  %44 = sext i32 %42 to i64
  %45 = getelementptr inbounds i8, ptr %43, i64 %44
  store ptr %45, ptr %8, align 8, !tbaa !77
  br label %46

46:                                               ; preds = %20
  %47 = load i32, ptr %14, align 4, !tbaa !47
  %48 = load i32, ptr %15, align 4, !tbaa !47
  %49 = add nsw i32 %48, %47
  store i32 %49, ptr %15, align 4, !tbaa !47
  br label %16, !llvm.loop !220

50:                                               ; preds = %16
  call void @llvm.lifetime.end.p0(i64 4, ptr %15) #10
  ret void
}