; Function Attrs: nofree norecurse nosync nounwind memory(argmem: readwrite) uwtable
define internal void @iblend_vline(ptr noundef captures(none) %0, i32 noundef %1, i32 noundef %2, float noundef %3, float noundef %4, i32 noundef %5, i32 noundef %6) #8 {
  %8 = icmp sgt i32 %1, 0
  br i1 %8, label %.lr.ph, label %._crit_edge

.lr.ph:                                           ; preds = %7
  %9 = mul nsw i32 %6, %2
  %10 = sext i32 %9 to i64
  br label %11

11:                                               ; preds = %.lr.ph, %11
  %.014 = phi i32 [ 0, %.lr.ph ], [ %21, %11 ]
  %.01213 = phi ptr [ %0, %.lr.ph ], [ %20, %11 ]
  %12 = load i8, ptr %.01213, align 1, !tbaa !62
  %13 = zext i8 %12 to i32
  %14 = sub nsw i32 %5, %13
  %15 = sitofp i32 %14 to float
  %16 = uitofp i8 %12 to float
  %17 = fmul nsz float %4, %16
  %18 = tail call nsz float @llvm.fmuladd.f32(float %15, float %3, float %17)
  %19 = fptoui float %18 to i8
  store i8 %19, ptr %.01213, align 1, !tbaa !62
  %20 = getelementptr inbounds i8, ptr %.01213, i64 %10
  %21 = add nsw i32 %.014, %6
  %22 = icmp slt i32 %21, %1
  br i1 %22, label %11, label %._crit_edge, !llvm.loop !259

._crit_edge:                                      ; preds = %11, %7
  ret void
}